target datalayout = "e-m:e-p270:32:32-p271:32:32-p272:64:64-i64:64-i128:128-f80:128-n8:16:32:64-S128"
target triple = "x86_64-pc-linux-gnu"

%class.File = type { ptr, i64, i8, i32, i8, i8, i32, i8, i8, i8, i8, i8, i64, i8, [2048 x i32], i32, ptr }

; Function Attrs: mustprogress uwtable
define noundef zeroext i1 @_ZN4File6RenameEPKw(ptr noundef nonnull align 8 dereferenceable(8256) %0, ptr noundef %1) #1 align 2 {
  %3 = alloca ptr, align 8
  %4 = alloca ptr, align 8
  %5 = alloca i8, align 1
  store ptr %0, ptr %3, align 8
  store ptr %1, ptr %4, align 8
  %6 = load ptr, ptr %3, align 8
  %7 = getelementptr inbounds %class.File, ptr %6, i32 0, i32 14
  %8 = getelementptr inbounds [2048 x i32], ptr %7, i64 0, i64 0
  %9 = load ptr, ptr %4, align 8
  %10 = call i32 @wcscmp(ptr noundef %8, ptr noundef %9) #13
  %11 = icmp eq i32 %10, 0
  %12 = zext i1 %11 to i8
  store i8 %12, ptr %5, align 1
  %13 = load i8, ptr %5, align 1
  %14 = trunc i8 %13 to i1
  br i1 %14, label %21, label %15

15:                                               ; preds = %2
  %16 = getelementptr inbounds %class.File, ptr %6, i32 0, i32 14
  %17 = getelementptr inbounds [2048 x i32], ptr %16, i64 0, i64 0
  %18 = load ptr, ptr %4, align 8
  %19 = call noundef zeroext i1 @_Z10RenameFilePKwS0_(ptr noundef %17, ptr noundef %18)
  %20 = zext i1 %19 to i8
  store i8 %20, ptr %5, align 1
  br label %21

21:                                               ; preds = %15, %2
  %22 = load i8, ptr %5, align 1
  %23 = trunc i8 %22 to i1
  br i1 %23, label %24, label %28

24:                                               ; preds = %21
  %25 = getelementptr inbounds %class.File, ptr %6, i32 0, i32 14
  %26 = getelementptr inbounds [2048 x i32], ptr %25, i64 0, i64 0
  %27 = load ptr, ptr %4, align 8
  call void @_Z8wcsncpyzPwPKwm(ptr noundef %26, ptr noundef %27, i64 noundef 2048)
  br label %28

28:                                               ; preds = %24, %21
  %29 = load i8, ptr %5, align 1
  %30 = trunc i8 %29 to i1
  ret i1 %30
}