; Function Attrs: mustprogress uwtable
define noundef zeroext i1 @_ZN4File6RenameEPKw(ptr noundef nonnull align 8 dereferenceable(8256) %0, ptr noundef %1) local_unnamed_addr #2 align 2 {
  %3 = getelementptr inbounds i8, ptr %0, i64 52
  %4 = tail call i32 @wcscmp(ptr noundef nonnull %3, ptr noundef %1) #21
  %5 = icmp eq i32 %4, 0
  br i1 %5, label %.thread, label %6

6:                                                ; preds = %2
  %7 = tail call noundef zeroext i1 @_Z10RenameFilePKwS0_(ptr noundef nonnull %3, ptr noundef %1)
  br i1 %7, label %.thread, label %8

.thread:                                          ; preds = %2, %6
  tail call void @_Z8wcsncpyzPwPKwm(ptr noundef nonnull %3, ptr noundef %1, i64 noundef 2048)
  br label %8

8:                                                ; preds = %.thread, %6
  %.0.in7 = phi i1 [ true, %.thread ], [ false, %6 ]
  ret i1 %.0.in7
}